; ModuleID = '20/1170.c'
source_filename = "20/1170.c"
target datalayout = "e-m:e-p270:32:32-p271:32:32-p272:64:64-i64:64-f80:128-n8:16:32:64-S128"
target triple = "x86_64-pc-linux-gnu"

@.str = private unnamed_addr constant [5 x i8] c"%s%s\00", align 1
@.str.1 = private unnamed_addr constant [3 x i8] c"%c\00", align 1
@.str.2 = private unnamed_addr constant [3 x i8] c"%s\00", align 1
@.str.3 = private unnamed_addr constant [2 x i8] c"\0A\00", align 1

; Function Attrs: noinline nounwind uwtable
define dso_local void @main() #0 {
  %1 = alloca [12 x i8], align 1
  %2 = alloca [4 x i8], align 1
  %3 = alloca i32, align 4
  %4 = alloca i32, align 4
  %5 = alloca i32, align 4
  %6 = alloca i8, align 1
  store i32 0, i32* %3, align 4
  store i32 0, i32* %5, align 4
  br label %7

7:                                                ; preds = %70, %0
  %8 = getelementptr inbounds [12 x i8], [12 x i8]* %1, i64 0, i64 0
  %9 = getelementptr inbounds [4 x i8], [4 x i8]* %2, i64 0, i64 0
  %10 = call i32 (i8*, ...) @__isoc99_scanf(i8* getelementptr inbounds ([5 x i8], [5 x i8]* @.str, i64 0, i64 0), i8* %8, i8* %9)
  %11 = icmp ne i32 %10, -1
  br i1 %11, label %12, label %72

12:                                               ; preds = %7
  %13 = getelementptr inbounds [12 x i8], [12 x i8]* %1, i64 0, i64 0
  %14 = call i64 @strlen(i8* %13) #3
  %15 = trunc i64 %14 to i32
  store i32 %15, i32* %4, align 4
  %16 = getelementptr inbounds [12 x i8], [12 x i8]* %1, i64 0, i64 0
  %17 = load i8, i8* %16, align 1
  store i8 %17, i8* %6, align 1
  br label %18

18:                                               ; preds = %37, %12
  %19 = load i32, i32* %3, align 4
  %20 = load i32, i32* %4, align 4
  %21 = icmp slt i32 %19, %20
  br i1 %21, label %22, label %40

22:                                               ; preds = %18
  %23 = load i32, i32* %3, align 4
  %24 = sext i32 %23 to i64
  %25 = getelementptr inbounds [12 x i8], [12 x i8]* %1, i64 0, i64 %24
  %26 = load i8, i8* %25, align 1
  %27 = sext i8 %26 to i32
  %28 = load i8, i8* %6, align 1
  %29 = sext i8 %28 to i32
  %30 = icmp sgt i32 %27, %29
  br i1 %30, label %31, label %37

31:                                               ; preds = %22
  %32 = load i32, i32* %3, align 4
  %33 = sext i32 %32 to i64
  %34 = getelementptr inbounds [12 x i8], [12 x i8]* %1, i64 0, i64 %33
  %35 = load i8, i8* %34, align 1
  store i8 %35, i8* %6, align 1
  %36 = load i32, i32* %3, align 4
  store i32 %36, i32* %5, align 4
  br label %37

37:                                               ; preds = %31, %22
  %38 = load i32, i32* %3, align 4
  %39 = add nsw i32 %38, 1
  store i32 %39, i32* %3, align 4
  br label %18

40:                                               ; preds = %18
  store i32 0, i32* %3, align 4
  br label %41

41:                                               ; preds = %45, %40
  %42 = load i32, i32* %3, align 4
  %43 = load i32, i32* %5, align 4
  %44 = icmp sle i32 %42, %43
  br i1 %44, label %45, label %54

45:                                               ; preds = %41
  %46 = load i32, i32* %3, align 4
  %47 = sext i32 %46 to i64
  %48 = getelementptr inbounds [12 x i8], [12 x i8]* %1, i64 0, i64 %47
  %49 = load i8, i8* %48, align 1
  %50 = sext i8 %49 to i32
  %51 = call i32 (i8*, ...) @printf(i8* getelementptr inbounds ([3 x i8], [3 x i8]* @.str.1, i64 0, i64 0), i32 %50)
  %52 = load i32, i32* %3, align 4
  %53 = add nsw i32 %52, 1
  store i32 %53, i32* %3, align 4
  br label %41

54:                                               ; preds = %41
  %55 = getelementptr inbounds [4 x i8], [4 x i8]* %2, i64 0, i64 0
  %56 = call i32 (i8*, ...) @printf(i8* getelementptr inbounds ([3 x i8], [3 x i8]* @.str.2, i64 0, i64 0), i8* %55)
  br label %57

57:                                               ; preds = %61, %54
  %58 = load i32, i32* %3, align 4
  %59 = load i32, i32* %4, align 4
  %60 = icmp slt i32 %58, %59
  br i1 %60, label %61, label %70

61:                                               ; preds = %57
  %62 = load i32, i32* %3, align 4
  %63 = sext i32 %62 to i64
  %64 = getelementptr inbounds [12 x i8], [12 x i8]* %1, i64 0, i64 %63
  %65 = load i8, i8* %64, align 1
  %66 = sext i8 %65 to i32
  %67 = call i32 (i8*, ...) @printf(i8* getelementptr inbounds ([3 x i8], [3 x i8]* @.str.1, i64 0, i64 0), i32 %66)
  %68 = load i32, i32* %3, align 4
  %69 = add nsw i32 %68, 1
  store i32 %69, i32* %3, align 4
  br label %57

70:                                               ; preds = %57
  store i32 0, i32* %3, align 4
  %71 = call i32 (i8*, ...) @printf(i8* getelementptr inbounds ([2 x i8], [2 x i8]* @.str.3, i64 0, i64 0))
  store i32 0, i32* %5, align 4
  br label %7

72:                                               ; preds = %7
  ret void
}

declare dso_local i32 @__isoc99_scanf(i8*, ...) #1

; Function Attrs: nounwind readonly
declare dso_local i64 @strlen(i8*) #2

declare dso_local i32 @printf(i8*, ...) #1


!llvm.module.flags = !{!0}
!llvm.ident = !{!1}

!0 = !{i32 1, !"wchar_size", i32 4}
!1 = !{!"clang version 10.0.0-4ubuntu1 "}
